; Function Attrs: nounwind uwtable
define dso_local range(i32 0, 101) i32 @curlx_dyn_vaddf(ptr noundef captures(none) %0, ptr noundef %1, ptr noundef %2) local_unnamed_addr #6 {
  %4 = tail call ptr @curl_mvaprintf(ptr noundef %1, ptr noundef %2) #16
  %.not = icmp eq ptr %4, null
  br i1 %.not, label %36, label %5

5:                                                ; preds = %3
  %6 = tail call i64 @strlen(ptr noundef nonnull dereferenceable(1) %4) #18
  %7 = getelementptr inbounds nuw i8, ptr %0, i64 8
  %8 = load i64, ptr %7, align 8, !tbaa !12
  %9 = getelementptr inbounds nuw i8, ptr %0, i64 16
  %10 = add i64 %8, %6
  %11 = add i64 %10, 1
  %12 = getelementptr inbounds nuw i8, ptr %0, i64 24
  %13 = load i64, ptr %12, align 8, !tbaa !4
  %14 = icmp ugt i64 %11, %13
  br i1 %14, label %15, label %17

15:                                               ; preds = %5
  %16 = load ptr, ptr %0, align 8, !tbaa !11
  tail call void @free(ptr noundef %16) #16
  tail call void @llvm.memset.p0.i64(ptr noundef nonnull align 8 dereferenceable(24) %0, i8 0, i64 24, i1 false)
  br label %dyn_nappend.exit

17:                                               ; preds = %5
  %18 = load i64, ptr %9, align 8, !tbaa !14
  %.not.i = icmp eq i64 %18, 0
  br i1 %.not.i, label %19, label %.preheader.i

19:                                               ; preds = %17
  %20 = icmp ult i64 %13, 32
  br i1 %20, label %25, label %21

21:                                               ; preds = %19
  %..i = tail call i64 @llvm.umax.i64(i64 %11, i64 32)
  br label %25

.preheader.i:                                     ; preds = %17, %.preheader.i
  %.040.i = phi i64 [ %23, %.preheader.i ], [ %18, %17 ]
  %22 = icmp ult i64 %.040.i, %11
  %23 = shl i64 %.040.i, 1
  br i1 %22, label %.preheader.i, label %24, !llvm.loop !15

24:                                               ; preds = %.preheader.i
  %spec.select.i = tail call i64 @llvm.umin.i64(i64 %.040.i, i64 %13)
  br label %25

25:                                               ; preds = %24, %21, %19
  %.141.i = phi i64 [ %13, %19 ], [ %..i, %21 ], [ %spec.select.i, %24 ]
  %.not48.i = icmp eq i64 %.141.i, %18
  %.pre51.pre.i = load ptr, ptr %0, align 8, !tbaa !11
  br i1 %.not48.i, label %30, label %26

26:                                               ; preds = %25
  %27 = tail call ptr @realloc(ptr noundef %.pre51.pre.i, i64 noundef %.141.i) #17
  %.not49.not.i = icmp eq ptr %27, null
  br i1 %.not49.not.i, label %.thread.i, label %29

.thread.i:                                        ; preds = %26
  %28 = load ptr, ptr %0, align 8, !tbaa !11
  tail call void @free(ptr noundef %28) #16
  tail call void @llvm.memset.p0.i64(ptr noundef nonnull align 8 dereferenceable(24) %0, i8 0, i64 24, i1 false)
  br label %dyn_nappend.exit

29:                                               ; preds = %26
  store ptr %27, ptr %0, align 8, !tbaa !11
  store i64 %.141.i, ptr %9, align 8, !tbaa !14
  br label %30

30:                                               ; preds = %29, %25
  %.pre51.i = phi ptr [ %27, %29 ], [ %.pre51.pre.i, %25 ]
  %.not50.i = icmp eq i64 %6, 0
  br i1 %.not50.i, label %33, label %31

31:                                               ; preds = %30
  %32 = getelementptr inbounds nuw i8, ptr %.pre51.i, i64 %8
  tail call void @llvm.memcpy.p0.p0.i64(ptr align 1 %32, ptr nonnull readonly align 1 %4, i64 %6, i1 false)
  %.pre.i = load ptr, ptr %0, align 8, !tbaa !11
  br label %33

33:                                               ; preds = %31, %30
  %34 = phi ptr [ %.pre.i, %31 ], [ %.pre51.i, %30 ]
  store i64 %10, ptr %7, align 8, !tbaa !12
  %35 = getelementptr inbounds nuw i8, ptr %34, i64 %10
  store i8 0, ptr %35, align 1, !tbaa !13
  br label %dyn_nappend.exit

dyn_nappend.exit:                                 ; preds = %15, %.thread.i, %33
  %.0.i = phi i32 [ 100, %15 ], [ 0, %33 ], [ 27, %.thread.i ]
  tail call void @free(ptr noundef %4) #16
  br label %38

36:                                               ; preds = %3
  %37 = load ptr, ptr %0, align 8, !tbaa !11
  tail call void @free(ptr noundef %37) #16
  tail call void @llvm.memset.p0.i64(ptr noundef nonnull align 8 dereferenceable(24) %0, i8 0, i64 24, i1 false)
  br label %38

38:                                               ; preds = %36, %dyn_nappend.exit
  %.0 = phi i32 [ %.0.i, %dyn_nappend.exit ], [ 27, %36 ]
  ret i32 %.0
}